#include <math.h>
#include <stdio.h>
#include <stdlib.h>
#include <string.h>

int main()
{
	int n,a[100],i,b[100];
	scanf("%d",&n);
	for(i=0;i<n;i++){
		scanf("%d",&a[i]);
		b[n-i-1]=a[i];
	}
	for(i=0;i<n;i++){
		a[i]=b[i];
		if(i==0){
			printf("%d",a[i]);}
		else{
			printf(" %d",a[i]);}
	}
	return 0;
}